target datalayout = "e-m:e-p270:32:32-p271:32:32-p272:64:64-i64:64-i128:128-f80:128-n8:16:32:64-S128"
target triple = "x86_64-pc-linux-gnu"

%struct._typeobject = type { %struct.PyVarObject, ptr, i64, i64, ptr, i64, ptr, ptr, ptr, ptr, ptr, ptr, ptr, ptr, ptr, ptr, ptr, ptr, ptr, i64, ptr, ptr, ptr, ptr, i64, ptr, ptr, ptr, ptr, ptr, ptr, ptr, ptr, ptr, i64, ptr, ptr, ptr, ptr, ptr, ptr, ptr, ptr, ptr, ptr, ptr, i32, ptr, ptr, i8, i16 }
%struct.PyVarObject = type { %struct._object, i64 }
%struct._object = type { %union.anon, ptr }
%union.anon = type { i64 }
%struct.PyDescrObject = type { %struct._object, ptr, ptr, ptr }
%struct.anon = type { i32, i32 }

@.str.12 = private unnamed_addr constant [2 x i8] c"?\00", align 1
@PyExc_TypeError = external global ptr, align 8
@.str.26 = private unnamed_addr constant [72 x i8] c"descriptor '%V' for '%.100s' objects doesn't apply to a '%.100s' object\00", align 1
@.str.40 = private unnamed_addr constant [36 x i8] c"unbound method %U needs an argument\00", align 1
@.str.41 = private unnamed_addr constant [30 x i8] c"%U takes no keyword arguments\00", align 1

; Function Attrs: inlinehint nounwind uwtable
define internal i32 @PyType_HasFeature(ptr noundef %0, i64 noundef %1) #3 {
  %3 = alloca ptr, align 8
  %4 = alloca i64, align 8
  %5 = alloca i64, align 8
  store ptr %0, ptr %3, align 8, !tbaa !33
  store i64 %1, ptr %4, align 8, !tbaa !32
  call void @llvm.lifetime.start.p0(i64 8, ptr %5) #6
  %6 = load ptr, ptr %3, align 8, !tbaa !33
  %7 = getelementptr inbounds nuw %struct._typeobject, ptr %6, i32 0, i32 19
  %8 = load i64, ptr %7, align 8, !tbaa !160
  store i64 %8, ptr %5, align 8, !tbaa !32
  %9 = load i64, ptr %5, align 8, !tbaa !32
  %10 = load i64, ptr %4, align 8, !tbaa !32
  %11 = and i64 %9, %10
  %12 = icmp ne i64 %11, 0
  %13 = zext i1 %12 to i32
  call void @llvm.lifetime.end.p0(i64 8, ptr %5) #6
  ret i32 %13
}

; Function Attrs: inlinehint nounwind uwtable
define internal i32 @Py_IS_TYPE(ptr noundef %0, ptr noundef %1) #3 {
  %3 = alloca ptr, align 8
  %4 = alloca ptr, align 8
  store ptr %0, ptr %3, align 8, !tbaa !4
  store ptr %1, ptr %4, align 8, !tbaa !33
  %5 = load ptr, ptr %3, align 8, !tbaa !4
  %6 = call ptr @_Py_TYPE(ptr noundef %5)
  %7 = load ptr, ptr %4, align 8, !tbaa !33
  %8 = icmp eq ptr %6, %7
  %9 = zext i1 %8 to i32
  ret i32 %9
}

; Function Attrs: inlinehint nounwind uwtable
define internal i64 @Py_SIZE(ptr noundef %0) #3 {
  %2 = alloca ptr, align 8
  store ptr %0, ptr %2, align 8, !tbaa !4
  %3 = load ptr, ptr %2, align 8, !tbaa !4
  %4 = getelementptr inbounds nuw %struct.PyVarObject, ptr %3, i32 0, i32 1
  %5 = load i64, ptr %4, align 8, !tbaa !162
  ret i64 %5
}

; Function Attrs: inlinehint nounwind uwtable
define internal ptr @_Py_TYPE(ptr noundef %0) #3 {
  %2 = alloca ptr, align 8
  store ptr %0, ptr %2, align 8, !tbaa !4
  %3 = load ptr, ptr %2, align 8, !tbaa !4
  %4 = getelementptr inbounds nuw %struct._object, ptr %3, i32 0, i32 1
  %5 = load ptr, ptr %4, align 8, !tbaa !64
  ret ptr %5
}

; Function Attrs: nounwind uwtable
define internal ptr @descr_name(ptr noundef %0) #0 {
  %2 = alloca ptr, align 8
  %3 = alloca ptr, align 8
  store ptr %0, ptr %3, align 8, !tbaa !9
  %4 = load ptr, ptr %3, align 8, !tbaa !9
  %5 = getelementptr inbounds nuw %struct.PyDescrObject, ptr %4, i32 0, i32 2
  %6 = load ptr, ptr %5, align 8, !tbaa !14
  %7 = icmp ne ptr %6, null
  br i1 %7, label %8, label %19

8:                                                ; preds = %1
  %9 = load ptr, ptr %3, align 8, !tbaa !9
  %10 = getelementptr inbounds nuw %struct.PyDescrObject, ptr %9, i32 0, i32 2
  %11 = load ptr, ptr %10, align 8, !tbaa !14
  %12 = call ptr @_Py_TYPE(ptr noundef %11)
  %13 = call i32 @PyType_HasFeature(ptr noundef %12, i64 noundef 268435456)
  %14 = icmp ne i32 %13, 0
  br i1 %14, label %15, label %19

15:                                               ; preds = %8
  %16 = load ptr, ptr %3, align 8, !tbaa !9
  %17 = getelementptr inbounds nuw %struct.PyDescrObject, ptr %16, i32 0, i32 2
  %18 = load ptr, ptr %17, align 8, !tbaa !14
  store ptr %18, ptr %2, align 8
  br label %20

19:                                               ; preds = %8, %1
  store ptr null, ptr %2, align 8
  br label %20

20:                                               ; preds = %19, %15
  %21 = load ptr, ptr %2, align 8
  ret ptr %21
}

; Function Attrs: inlinehint nounwind uwtable
define internal i32 @PyObject_TypeCheck(ptr noundef %0, ptr noundef %1) #3 {
  %3 = alloca ptr, align 8
  %4 = alloca ptr, align 8
  store ptr %0, ptr %3, align 8, !tbaa !4
  store ptr %1, ptr %4, align 8, !tbaa !33
  %5 = load ptr, ptr %3, align 8, !tbaa !4
  %6 = load ptr, ptr %4, align 8, !tbaa !33
  %7 = call i32 @Py_IS_TYPE(ptr noundef %5, ptr noundef %6)
  %8 = icmp ne i32 %7, 0
  br i1 %8, label %15, label %9

9:                                                ; preds = %2
  %10 = load ptr, ptr %3, align 8, !tbaa !4
  %11 = call ptr @_Py_TYPE(ptr noundef %10)
  %12 = load ptr, ptr %4, align 8, !tbaa !33
  %13 = call i32 @PyType_IsSubtype(ptr noundef %11, ptr noundef %12)
  %14 = icmp ne i32 %13, 0
  br label %15

15:                                               ; preds = %9, %2
  %16 = phi i1 [ true, %2 ], [ %14, %9 ]
  %17 = zext i1 %16 to i32
  ret i32 %17
}

; Function Attrs: alwaysinline nounwind uwtable
define internal i32 @_Py_IsImmortal(ptr noundef %0) #4 {
  %2 = alloca ptr, align 8
  store ptr %0, ptr %2, align 8, !tbaa !4
  %3 = load ptr, ptr %2, align 8, !tbaa !4
  %4 = getelementptr inbounds nuw %struct._object, ptr %3, i32 0, i32 0
  %5 = getelementptr inbounds nuw %struct.anon, ptr %4, i32 0, i32 0
  %6 = load i32, ptr %5, align 8, !tbaa !159
  %7 = icmp slt i32 %6, 0
  %8 = zext i1 %7 to i32
  ret i32 %8
}

; Function Attrs: inlinehint nounwind uwtable
define internal i64 @PyTuple_GET_SIZE(ptr noundef %0) #3 {
  %2 = alloca ptr, align 8
  %3 = alloca ptr, align 8
  store ptr %0, ptr %2, align 8, !tbaa !4
  call void @llvm.lifetime.start.p0(i64 8, ptr %3) #6
  %4 = load ptr, ptr %2, align 8, !tbaa !4
  store ptr %4, ptr %3, align 8, !tbaa !9
  %5 = load ptr, ptr %3, align 8, !tbaa !9
  %6 = call i64 @Py_SIZE(ptr noundef %5)
  call void @llvm.lifetime.end.p0(i64 8, ptr %3) #6
  ret i64 %6
}

; Function Attrs: nounwind uwtable
define internal i32 @descr_check(ptr noundef %0, ptr noundef %1) #0 {
  %3 = alloca i32, align 4
  %4 = alloca ptr, align 8
  %5 = alloca ptr, align 8
  store ptr %0, ptr %4, align 8, !tbaa !9
  store ptr %1, ptr %5, align 8, !tbaa !4
  %6 = load ptr, ptr %5, align 8, !tbaa !4
  %7 = load ptr, ptr %4, align 8, !tbaa !9
  %8 = getelementptr inbounds nuw %struct.PyDescrObject, ptr %7, i32 0, i32 1
  %9 = load ptr, ptr %8, align 8, !tbaa !10
  %10 = call i32 @PyObject_TypeCheck(ptr noundef %6, ptr noundef %9)
  %11 = icmp ne i32 %10, 0
  br i1 %11, label %26, label %12

12:                                               ; preds = %2
  %13 = load ptr, ptr @PyExc_TypeError, align 8, !tbaa !4
  %14 = load ptr, ptr %4, align 8, !tbaa !9
  %15 = call ptr @descr_name(ptr noundef %14)
  %16 = load ptr, ptr %4, align 8, !tbaa !9
  %17 = getelementptr inbounds nuw %struct.PyDescrObject, ptr %16, i32 0, i32 1
  %18 = load ptr, ptr %17, align 8, !tbaa !10
  %19 = getelementptr inbounds nuw %struct._typeobject, ptr %18, i32 0, i32 1
  %20 = load ptr, ptr %19, align 8, !tbaa !25
  %21 = load ptr, ptr %5, align 8, !tbaa !4
  %22 = call ptr @_Py_TYPE(ptr noundef %21)
  %23 = getelementptr inbounds nuw %struct._typeobject, ptr %22, i32 0, i32 1
  %24 = load ptr, ptr %23, align 8, !tbaa !25
  %25 = call ptr (ptr, ptr, ...) @PyErr_Format(ptr noundef %13, ptr noundef @.str.26, ptr noundef %15, ptr noundef @.str.12, ptr noundef %20, ptr noundef %24)
  store i32 -1, ptr %3, align 4
  br label %27

26:                                               ; preds = %2
  store i32 0, ptr %3, align 4
  br label %27

27:                                               ; preds = %26, %12
  %28 = load i32, ptr %3, align 4
  ret i32 %28
}

; Function Attrs: alwaysinline nounwind uwtable
define internal void @Py_DECREF(ptr noundef %0) #4 {
  %2 = alloca ptr, align 8
  store ptr %0, ptr %2, align 8, !tbaa !4
  %3 = load ptr, ptr %2, align 8, !tbaa !4
  %4 = call i32 @_Py_IsImmortal(ptr noundef %3)
  %5 = icmp ne i32 %4, 0
  br i1 %5, label %6, label %7

6:                                                ; preds = %1
  br label %16

7:                                                ; preds = %1
  %8 = load ptr, ptr %2, align 8, !tbaa !4
  %9 = getelementptr inbounds nuw %struct._object, ptr %8, i32 0, i32 0
  %10 = getelementptr inbounds nuw %struct.anon, ptr %9, i32 0, i32 0
  %11 = load i32, ptr %10, align 8, !tbaa !159
  %12 = add i32 %11, -1
  store i32 %12, ptr %10, align 8, !tbaa !159
  %13 = icmp eq i32 %12, 0
  br i1 %13, label %14, label %16

14:                                               ; preds = %7
  %15 = load ptr, ptr %2, align 8, !tbaa !4
  call void @_Py_Dealloc(ptr noundef %15)
  br label %16

16:                                               ; preds = %6, %14, %7
  ret void
}

; Function Attrs: inlinehint nounwind uwtable
define internal i32 @method_check_args(ptr noundef %0, ptr noundef %1, i64 noundef %2, ptr noundef %3) #3 {
  %5 = alloca i32, align 4
  %6 = alloca ptr, align 8
  %7 = alloca ptr, align 8
  %8 = alloca i64, align 8
  %9 = alloca ptr, align 8
  %10 = alloca ptr, align 8
  %11 = alloca ptr, align 8
  %12 = alloca i32, align 4
  %13 = alloca ptr, align 8
  store ptr %0, ptr %6, align 8, !tbaa !4
  store ptr %1, ptr %7, align 8, !tbaa !48
  store i64 %2, ptr %8, align 8, !tbaa !32
  store ptr %3, ptr %9, align 8, !tbaa !4
  %14 = load i64, ptr %8, align 8, !tbaa !32
  %15 = icmp slt i64 %14, 1
  br i1 %15, label %16, label %27

16:                                               ; preds = %4
  call void @llvm.lifetime.start.p0(i64 8, ptr %10) #6
  %17 = load ptr, ptr %6, align 8, !tbaa !4
  %18 = call ptr @_PyObject_FunctionStr(ptr noundef %17)
  store ptr %18, ptr %10, align 8, !tbaa !4
  %19 = load ptr, ptr %10, align 8, !tbaa !4
  %20 = icmp ne ptr %19, null
  br i1 %20, label %21, label %26

21:                                               ; preds = %16
  %22 = load ptr, ptr @PyExc_TypeError, align 8, !tbaa !4
  %23 = load ptr, ptr %10, align 8, !tbaa !4
  %24 = call ptr (ptr, ptr, ...) @PyErr_Format(ptr noundef %22, ptr noundef @.str.40, ptr noundef %23)
  %25 = load ptr, ptr %10, align 8, !tbaa !4
  call void @Py_DECREF(ptr noundef %25)
  br label %26

26:                                               ; preds = %21, %16
  store i32 -1, ptr %5, align 4
  call void @llvm.lifetime.end.p0(i64 8, ptr %10) #6
  br label %56

27:                                               ; preds = %4
  call void @llvm.lifetime.start.p0(i64 8, ptr %11) #6
  %28 = load ptr, ptr %7, align 8, !tbaa !48
  %29 = getelementptr ptr, ptr %28, i64 0
  %30 = load ptr, ptr %29, align 8, !tbaa !4
  store ptr %30, ptr %11, align 8, !tbaa !4
  %31 = load ptr, ptr %6, align 8, !tbaa !4
  %32 = load ptr, ptr %11, align 8, !tbaa !4
  %33 = call i32 @descr_check(ptr noundef %31, ptr noundef %32)
  %34 = icmp slt i32 %33, 0
  br i1 %34, label %35, label %36

35:                                               ; preds = %27
  store i32 -1, ptr %5, align 4
  store i32 1, ptr %12, align 4
  br label %55

36:                                               ; preds = %27
  %37 = load ptr, ptr %9, align 8, !tbaa !4
  %38 = icmp ne ptr %37, null
  br i1 %38, label %39, label %54

39:                                               ; preds = %36
  %40 = load ptr, ptr %9, align 8, !tbaa !4
  %41 = call i64 @PyTuple_GET_SIZE(ptr noundef %40)
  %42 = icmp ne i64 %41, 0
  br i1 %42, label %43, label %54

43:                                               ; preds = %39
  call void @llvm.lifetime.start.p0(i64 8, ptr %13) #6
  %44 = load ptr, ptr %6, align 8, !tbaa !4
  %45 = call ptr @_PyObject_FunctionStr(ptr noundef %44)
  store ptr %45, ptr %13, align 8, !tbaa !4
  %46 = load ptr, ptr %13, align 8, !tbaa !4
  %47 = icmp ne ptr %46, null
  br i1 %47, label %48, label %53

48:                                               ; preds = %43
  %49 = load ptr, ptr @PyExc_TypeError, align 8, !tbaa !4
  %50 = load ptr, ptr %13, align 8, !tbaa !4
  %51 = call ptr (ptr, ptr, ...) @PyErr_Format(ptr noundef %49, ptr noundef @.str.41, ptr noundef %50)
  %52 = load ptr, ptr %13, align 8, !tbaa !4
  call void @Py_DECREF(ptr noundef %52)
  br label %53

53:                                               ; preds = %48, %43
  store i32 -1, ptr %5, align 4
  store i32 1, ptr %12, align 4
  call void @llvm.lifetime.end.p0(i64 8, ptr %13) #6
  br label %55

54:                                               ; preds = %39, %36
  store i32 0, ptr %5, align 4
  store i32 1, ptr %12, align 4
  br label %55

55:                                               ; preds = %54, %53, %35
  call void @llvm.lifetime.end.p0(i64 8, ptr %11) #6
  br label %56

56:                                               ; preds = %55, %26
  %57 = load i32, ptr %5, align 4
  ret i32 %57
}