; Function Attrs: inlinehint nounwind uwtable
define internal fastcc range(i32 -1, 1) i32 @method_check_args(ptr noundef %0, ptr noundef readonly captures(none) %1, i64 noundef range(i64 0, -9223372036854775808) %2, ptr noundef readonly %3) unnamed_addr #5 {
  %5 = icmp eq i64 %2, 0
  br i1 %5, label %6, label %16

6:                                                ; preds = %4
  %7 = tail call ptr @_PyObject_FunctionStr(ptr noundef %0) #9
  %.not19 = icmp eq ptr %7, null
  br i1 %.not19, label %Py_DECREF.exit21, label %8

8:                                                ; preds = %6
  %9 = load ptr, ptr @PyExc_TypeError, align 8, !tbaa !30
  %10 = tail call ptr (ptr, ptr, ...) @PyErr_Format(ptr noundef %9, ptr noundef nonnull @.str.40, ptr noundef nonnull %7) #9
  %11 = load i32, ptr %7, align 8, !tbaa !16
  %.not.i20 = icmp sgt i32 %11, -1
  br i1 %.not.i20, label %12, label %Py_DECREF.exit21

12:                                               ; preds = %8
  %13 = add nsw i32 %11, -1
  store i32 %13, ptr %7, align 8, !tbaa !16
  %14 = icmp eq i32 %13, 0
  br i1 %14, label %15, label %Py_DECREF.exit21

15:                                               ; preds = %12
  tail call void @_Py_Dealloc(ptr noundef nonnull %7) #9
  br label %Py_DECREF.exit21

16:                                               ; preds = %4
  %17 = load ptr, ptr %1, align 8, !tbaa !30
  %18 = getelementptr inbounds nuw i8, ptr %0, i64 16
  %19 = load ptr, ptr %18, align 8, !tbaa !10
  %20 = getelementptr i8, ptr %17, i64 8
  %.val5.i = load ptr, ptr %20, align 8, !tbaa !19
  %.not.i.i = icmp eq ptr %.val5.i, %19
  br i1 %.not.i.i, label %35, label %PyObject_TypeCheck.exit.i

PyObject_TypeCheck.exit.i:                        ; preds = %16
  %21 = tail call i32 @PyType_IsSubtype(ptr noundef %.val5.i, ptr noundef %19) #9
  %.not9.i = icmp eq i32 %21, 0
  br i1 %.not9.i, label %22, label %35

22:                                               ; preds = %PyObject_TypeCheck.exit.i
  %23 = load ptr, ptr @PyExc_TypeError, align 8, !tbaa !30
  %24 = getelementptr i8, ptr %0, i64 24
  %.val6.i = load ptr, ptr %24, align 8, !tbaa !17
  %.not.i7.i = icmp eq ptr %.val6.i, null
  br i1 %.not.i7.i, label %descr_check.exit, label %25

25:                                               ; preds = %22
  %26 = getelementptr i8, ptr %.val6.i, i64 8
  %.val.i.i = load ptr, ptr %26, align 8, !tbaa !19
  %27 = getelementptr i8, ptr %.val.i.i, i64 168
  %.val6.i.i = load i64, ptr %27, align 8, !tbaa !20
  %28 = and i64 %.val6.i.i, 268435456
  %.not5.i.i = icmp eq i64 %28, 0
  %spec.select.i.i = select i1 %.not5.i.i, ptr null, ptr %.val6.i
  br label %descr_check.exit

descr_check.exit:                                 ; preds = %22, %25
  %.0.i.i = phi ptr [ null, %22 ], [ %spec.select.i.i, %25 ]
  %29 = load ptr, ptr %18, align 8, !tbaa !10
  %30 = getelementptr inbounds nuw i8, ptr %29, i64 24
  %31 = load ptr, ptr %30, align 8, !tbaa !29
  %.val.i = load ptr, ptr %20, align 8, !tbaa !19
  %32 = getelementptr inbounds nuw i8, ptr %.val.i, i64 24
  %33 = load ptr, ptr %32, align 8, !tbaa !29
  %34 = tail call ptr (ptr, ptr, ...) @PyErr_Format(ptr noundef %23, ptr noundef nonnull @.str.26, ptr noundef %.0.i.i, ptr noundef nonnull @.str.12, ptr noundef %31, ptr noundef %33) #9
  br label %Py_DECREF.exit21

35:                                               ; preds = %PyObject_TypeCheck.exit.i, %16
  %.not = icmp eq ptr %3, null
  br i1 %.not, label %Py_DECREF.exit21, label %36

36:                                               ; preds = %35
  %37 = getelementptr i8, ptr %3, i64 16
  %.val = load i64, ptr %37, align 8, !tbaa !36
  %.not17 = icmp eq i64 %.val, 0
  br i1 %.not17, label %Py_DECREF.exit21, label %38

38:                                               ; preds = %36
  %39 = tail call ptr @_PyObject_FunctionStr(ptr noundef nonnull %0) #9
  %.not18 = icmp eq ptr %39, null
  br i1 %.not18, label %Py_DECREF.exit21, label %40

40:                                               ; preds = %38
  %41 = load ptr, ptr @PyExc_TypeError, align 8, !tbaa !30
  %42 = tail call ptr (ptr, ptr, ...) @PyErr_Format(ptr noundef %41, ptr noundef nonnull @.str.41, ptr noundef nonnull %39) #9
  %43 = load i32, ptr %39, align 8, !tbaa !16
  %.not.i = icmp sgt i32 %43, -1
  br i1 %.not.i, label %44, label %Py_DECREF.exit21

44:                                               ; preds = %40
  %45 = add nsw i32 %43, -1
  store i32 %45, ptr %39, align 8, !tbaa !16
  %46 = icmp eq i32 %45, 0
  br i1 %46, label %47, label %Py_DECREF.exit21

47:                                               ; preds = %44
  tail call void @_Py_Dealloc(ptr noundef nonnull %39) #9
  br label %Py_DECREF.exit21

Py_DECREF.exit21:                                 ; preds = %47, %44, %40, %descr_check.exit, %15, %12, %8, %38, %36, %35, %6
  %.0 = phi i32 [ -1, %6 ], [ -1, %descr_check.exit ], [ -1, %38 ], [ 0, %36 ], [ 0, %35 ], [ -1, %8 ], [ -1, %12 ], [ -1, %15 ], [ -1, %40 ], [ -1, %44 ], [ -1, %47 ]
  ret i32 %.0
}